; Function Attrs: mustprogress nofree norecurse nosync nounwind willreturn memory(argmem: readwrite) uwtable
define hidden void @_ZN4LIEF5MachO7details23dyld_chained_ptr_arm64e11pack_targetEm(ptr noundef nonnull align 8 captures(none) dereferenceable(8) %0, i64 noundef %1) local_unnamed_addr #2 align 2 {
  %3 = load i64, ptr %0, align 8
  %4 = lshr i64 %1, 13
  %5 = and i64 %3, -2251799813685248
  %6 = and i64 %1, 8796093022207
  %.masked.i = and i64 %4, 2243003720663040
  %7 = or disjoint i64 %.masked.i, %6
  %8 = or disjoint i64 %7, %5
  store i64 %8, ptr %0, align 8
  ret void
}